target datalayout = "e-m:e-p270:32:32-p271:32:32-p272:64:64-i64:64-i128:128-f80:128-n8:16:32:64-S128"
target triple = "x86_64-pc-linux-gnu"

; Function Attrs: nounwind uwtable
define internal i32 @make_decode_table(i32 noundef %0, i32 noundef %1, ptr noundef %2, ptr noundef %3) #0 {
  %5 = alloca i32, align 4
  %6 = alloca i32, align 4
  %7 = alloca i32, align 4
  %8 = alloca ptr, align 8
  %9 = alloca ptr, align 8
  %10 = alloca i16, align 2
  %11 = alloca i16, align 2
  %12 = alloca i32, align 4
  %13 = alloca i32, align 4
  %14 = alloca i8, align 1
  %15 = alloca i32, align 4
  %16 = alloca i32, align 4
  %17 = alloca i32, align 4
  store i32 %0, ptr %6, align 4
  store i32 %1, ptr %7, align 4
  store ptr %2, ptr %8, align 8
  store ptr %3, ptr %9, align 8
  store i32 0, ptr %15, align 4
  %18 = load i32, ptr %7, align 4
  %19 = shl i32 1, %18
  store i32 %19, ptr %16, align 4
  %20 = load i32, ptr %16, align 4
  %21 = lshr i32 %20, 1
  store i32 %21, ptr %17, align 4
  store i8 1, ptr %14, align 1
  br label %22

22:                                               ; preds = %72, %4
  %23 = load i8, ptr %14, align 1
  %24 = zext i8 %23 to i32
  %25 = load i32, ptr %7, align 4
  %26 = icmp ule i32 %24, %25
  br i1 %26, label %27, label %75

27:                                               ; preds = %22
  store i16 0, ptr %10, align 2
  br label %28

28:                                               ; preds = %66, %27
  %29 = load i16, ptr %10, align 2
  %30 = zext i16 %29 to i32
  %31 = load i32, ptr %6, align 4
  %32 = icmp ult i32 %30, %31
  br i1 %32, label %33, label %69

33:                                               ; preds = %28
  %34 = load ptr, ptr %8, align 8
  %35 = load i16, ptr %10, align 2
  %36 = zext i16 %35 to i64
  %37 = getelementptr inbounds i8, ptr %34, i64 %36
  %38 = load i8, ptr %37, align 1
  %39 = zext i8 %38 to i32
  %40 = load i8, ptr %14, align 1
  %41 = zext i8 %40 to i32
  %42 = icmp ne i32 %39, %41
  br i1 %42, label %43, label %44

43:                                               ; preds = %33
  br label %66

44:                                               ; preds = %33
  %45 = load i32, ptr %15, align 4
  store i32 %45, ptr %12, align 4
  %46 = load i32, ptr %17, align 4
  %47 = load i32, ptr %15, align 4
  %48 = add i32 %47, %46
  store i32 %48, ptr %15, align 4
  %49 = load i32, ptr %16, align 4
  %50 = icmp ugt i32 %48, %49
  br i1 %50, label %51, label %52

51:                                               ; preds = %44
  store i32 1, ptr %5, align 4
  br label %224

52:                                               ; preds = %44
  %53 = load i32, ptr %17, align 4
  store i32 %53, ptr %13, align 4
  br label %54

54:                                               ; preds = %58, %52
  %55 = load i32, ptr %13, align 4
  %56 = add i32 %55, -1
  store i32 %56, ptr %13, align 4
  %57 = icmp ugt i32 %55, 0
  br i1 %57, label %58, label %65

58:                                               ; preds = %54
  %59 = load i16, ptr %10, align 2
  %60 = load ptr, ptr %9, align 8
  %61 = load i32, ptr %12, align 4
  %62 = add i32 %61, 1
  store i32 %62, ptr %12, align 4
  %63 = zext i32 %61 to i64
  %64 = getelementptr inbounds i16, ptr %60, i64 %63
  store i16 %59, ptr %64, align 2
  br label %54

65:                                               ; preds = %54
  br label %66

66:                                               ; preds = %65, %43
  %67 = load i16, ptr %10, align 2
  %68 = add i16 %67, 1
  store i16 %68, ptr %10, align 2
  br label %28

69:                                               ; preds = %28
  %70 = load i32, ptr %17, align 4
  %71 = lshr i32 %70, 1
  store i32 %71, ptr %17, align 4
  br label %72

72:                                               ; preds = %69
  %73 = load i8, ptr %14, align 1
  %74 = add i8 %73, 1
  store i8 %74, ptr %14, align 1
  br label %22

75:                                               ; preds = %22
  %76 = load i32, ptr %15, align 4
  %77 = load i32, ptr %16, align 4
  %78 = icmp eq i32 %76, %77
  br i1 %78, label %79, label %80

79:                                               ; preds = %75
  store i32 0, ptr %5, align 4
  br label %224

80:                                               ; preds = %75
  %81 = load i32, ptr %15, align 4
  %82 = trunc i32 %81 to i16
  store i16 %82, ptr %10, align 2
  br label %83

83:                                               ; preds = %93, %80
  %84 = load i16, ptr %10, align 2
  %85 = zext i16 %84 to i32
  %86 = load i32, ptr %16, align 4
  %87 = icmp ult i32 %85, %86
  br i1 %87, label %88, label %96

88:                                               ; preds = %83
  %89 = load ptr, ptr %9, align 8
  %90 = load i16, ptr %10, align 2
  %91 = zext i16 %90 to i64
  %92 = getelementptr inbounds i16, ptr %89, i64 %91
  store i16 -1, ptr %92, align 2
  br label %93

93:                                               ; preds = %88
  %94 = load i16, ptr %10, align 2
  %95 = add i16 %94, 1
  store i16 %95, ptr %10, align 2
  br label %83

96:                                               ; preds = %83
  %97 = load i32, ptr %16, align 4
  %98 = lshr i32 %97, 1
  %99 = load i32, ptr %6, align 4
  %100 = icmp ult i32 %98, %99
  br i1 %100, label %101, label %103

101:                                              ; preds = %96
  %102 = load i32, ptr %6, align 4
  br label %106

103:                                              ; preds = %96
  %104 = load i32, ptr %16, align 4
  %105 = lshr i32 %104, 1
  br label %106

106:                                              ; preds = %103, %101
  %107 = phi i32 [ %102, %101 ], [ %105, %103 ]
  %108 = trunc i32 %107 to i16
  store i16 %108, ptr %11, align 2
  %109 = load i32, ptr %15, align 4
  %110 = shl i32 %109, 16
  store i32 %110, ptr %15, align 4
  %111 = load i32, ptr %16, align 4
  %112 = shl i32 %111, 16
  store i32 %112, ptr %16, align 4
  store i32 32768, ptr %17, align 4
  %113 = load i32, ptr %7, align 4
  %114 = add i32 %113, 1
  %115 = trunc i32 %114 to i8
  store i8 %115, ptr %14, align 1
  br label %116

116:                                              ; preds = %216, %106
  %117 = load i8, ptr %14, align 1
  %118 = zext i8 %117 to i32
  %119 = icmp sle i32 %118, 16
  br i1 %119, label %120, label %219

120:                                              ; preds = %116
  store i16 0, ptr %10, align 2
  br label %121

121:                                              ; preds = %210, %120
  %122 = load i16, ptr %10, align 2
  %123 = zext i16 %122 to i32
  %124 = load i32, ptr %6, align 4
  %125 = icmp ult i32 %123, %124
  br i1 %125, label %126, label %213

126:                                              ; preds = %121
  %127 = load ptr, ptr %8, align 8
  %128 = load i16, ptr %10, align 2
  %129 = zext i16 %128 to i64
  %130 = getelementptr inbounds i8, ptr %127, i64 %129
  %131 = load i8, ptr %130, align 1
  %132 = zext i8 %131 to i32
  %133 = load i8, ptr %14, align 1
  %134 = zext i8 %133 to i32
  %135 = icmp ne i32 %132, %134
  br i1 %135, label %136, label %137

136:                                              ; preds = %126
  br label %210

137:                                              ; preds = %126
  %138 = load i32, ptr %15, align 4
  %139 = load i32, ptr %16, align 4
  %140 = icmp uge i32 %138, %139
  br i1 %140, label %141, label %142

141:                                              ; preds = %137
  store i32 1, ptr %5, align 4
  br label %224

142:                                              ; preds = %137
  %143 = load i32, ptr %15, align 4
  %144 = lshr i32 %143, 16
  store i32 %144, ptr %12, align 4
  store i32 0, ptr %13, align 4
  br label %145

145:                                              ; preds = %198, %142
  %146 = load i32, ptr %13, align 4
  %147 = load i8, ptr %14, align 1
  %148 = zext i8 %147 to i32
  %149 = load i32, ptr %7, align 4
  %150 = sub i32 %148, %149
  %151 = icmp ult i32 %146, %150
  br i1 %151, label %152, label %201

152:                                              ; preds = %145
  %153 = load ptr, ptr %9, align 8
  %154 = load i32, ptr %12, align 4
  %155 = zext i32 %154 to i64
  %156 = getelementptr inbounds i16, ptr %153, i64 %155
  %157 = load i16, ptr %156, align 2
  %158 = zext i16 %157 to i32
  %159 = icmp eq i32 %158, 65535
  br i1 %159, label %160, label %180

160:                                              ; preds = %152
  %161 = load ptr, ptr %9, align 8
  %162 = load i16, ptr %11, align 2
  %163 = zext i16 %162 to i32
  %164 = shl i32 %163, 1
  %165 = sext i32 %164 to i64
  %166 = getelementptr inbounds i16, ptr %161, i64 %165
  store i16 -1, ptr %166, align 2
  %167 = load ptr, ptr %9, align 8
  %168 = load i16, ptr %11, align 2
  %169 = zext i16 %168 to i32
  %170 = shl i32 %169, 1
  %171 = add nsw i32 %170, 1
  %172 = sext i32 %171 to i64
  %173 = getelementptr inbounds i16, ptr %167, i64 %172
  store i16 -1, ptr %173, align 2
  %174 = load i16, ptr %11, align 2
  %175 = add i16 %174, 1
  store i16 %175, ptr %11, align 2
  %176 = load ptr, ptr %9, align 8
  %177 = load i32, ptr %12, align 4
  %178 = zext i32 %177 to i64
  %179 = getelementptr inbounds i16, ptr %176, i64 %178
  store i16 %174, ptr %179, align 2
  br label %180

180:                                              ; preds = %160, %152
  %181 = load ptr, ptr %9, align 8
  %182 = load i32, ptr %12, align 4
  %183 = zext i32 %182 to i64
  %184 = getelementptr inbounds i16, ptr %181, i64 %183
  %185 = load i16, ptr %184, align 2
  %186 = zext i16 %185 to i32
  %187 = shl i32 %186, 1
  store i32 %187, ptr %12, align 4
  %188 = load i32, ptr %15, align 4
  %189 = load i32, ptr %13, align 4
  %190 = sub i32 15, %189
  %191 = lshr i32 %188, %190
  %192 = and i32 %191, 1
  %193 = icmp ne i32 %192, 0
  br i1 %193, label %194, label %197

194:                                              ; preds = %180
  %195 = load i32, ptr %12, align 4
  %196 = add i32 %195, 1
  store i32 %196, ptr %12, align 4
  br label %197

197:                                              ; preds = %194, %180
  br label %198

198:                                              ; preds = %197
  %199 = load i32, ptr %13, align 4
  %200 = add i32 %199, 1
  store i32 %200, ptr %13, align 4
  br label %145

201:                                              ; preds = %145
  %202 = load i16, ptr %10, align 2
  %203 = load ptr, ptr %9, align 8
  %204 = load i32, ptr %12, align 4
  %205 = zext i32 %204 to i64
  %206 = getelementptr inbounds i16, ptr %203, i64 %205
  store i16 %202, ptr %206, align 2
  %207 = load i32, ptr %17, align 4
  %208 = load i32, ptr %15, align 4
  %209 = add i32 %208, %207
  store i32 %209, ptr %15, align 4
  br label %210

210:                                              ; preds = %201, %136
  %211 = load i16, ptr %10, align 2
  %212 = add i16 %211, 1
  store i16 %212, ptr %10, align 2
  br label %121

213:                                              ; preds = %121
  %214 = load i32, ptr %17, align 4
  %215 = lshr i32 %214, 1
  store i32 %215, ptr %17, align 4
  br label %216

216:                                              ; preds = %213
  %217 = load i8, ptr %14, align 1
  %218 = add i8 %217, 1
  store i8 %218, ptr %14, align 1
  br label %116

219:                                              ; preds = %116
  %220 = load i32, ptr %15, align 4
  %221 = load i32, ptr %16, align 4
  %222 = icmp eq i32 %220, %221
  %223 = select i1 %222, i32 0, i32 1
  store i32 %223, ptr %5, align 4
  br label %224

224:                                              ; preds = %219, %141, %79, %51
  %225 = load i32, ptr %5, align 4
  ret i32 %225
}