; Function Attrs: nofree norecurse nosync nounwind memory(argmem: readwrite) uwtable
define internal fastcc range(i32 0, 2) i32 @make_decode_table(i32 noundef range(i32 16, 257) %0, ptr noundef nonnull readonly captures(none) %1, ptr noundef nonnull captures(none) %2) unnamed_addr #4 {
  %4 = trunc nuw nsw i32 %0 to i16
  br label %.preheader101.split.preheader

.preheader101.split.preheader:                    ; preds = %.split.us, %3
  %.0116 = phi i32 [ 256, %3 ], [ %17, %.split.us ]
  %.073115 = phi i32 [ 0, %3 ], [ %.2, %.split.us ]
  %.075114 = phi i8 [ 1, %3 ], [ %18, %.split.us ]
  br label %.preheader101.split

.preheader101.split:                              ; preds = %.preheader101.split.preheader, %..loopexit100_crit_edge
  %.174113 = phi i32 [ %.2, %..loopexit100_crit_edge ], [ %.073115, %.preheader101.split.preheader ]
  %.087111 = phi i16 [ %15, %..loopexit100_crit_edge ], [ 0, %.preheader101.split.preheader ]
  %5 = zext nneg i16 %.087111 to i64
  %6 = getelementptr inbounds nuw i8, ptr %1, i64 %5
  %7 = load i8, ptr %6, align 1
  %.not97 = icmp eq i8 %7, %.075114
  br i1 %.not97, label %8, label %..loopexit100_crit_edge

8:                                                ; preds = %.preheader101.split
  %9 = add i32 %.174113, %.0116
  %10 = icmp ugt i32 %9, 512
  br i1 %10, label %.loopexit, label %.preheader99

.preheader99:                                     ; preds = %8, %.preheader99
  %.077110 = phi i32 [ %11, %.preheader99 ], [ %.0116, %8 ]
  %.079109 = phi i32 [ %12, %.preheader99 ], [ %.174113, %8 ]
  %11 = add nsw i32 %.077110, -1
  %12 = add i32 %.079109, 1
  %13 = zext i32 %.079109 to i64
  %14 = getelementptr inbounds nuw i16, ptr %2, i64 %13
  store i16 %.087111, ptr %14, align 2
  %.not98 = icmp eq i32 %11, 0
  br i1 %.not98, label %..loopexit100_crit_edge, label %.preheader99

..loopexit100_crit_edge:                          ; preds = %.preheader99, %.preheader101.split
  %.2 = phi i32 [ %.174113, %.preheader101.split ], [ %9, %.preheader99 ]
  %15 = add nuw nsw i16 %.087111, 1
  %16 = icmp samesign ult i16 %15, %4
  br i1 %16, label %.preheader101.split, label %.split.us

.split.us:                                        ; preds = %..loopexit100_crit_edge
  %17 = lshr i32 %.0116, 1
  %18 = add nuw nsw i8 %.075114, 1
  %exitcond.not = icmp eq i8 %18, 10
  br i1 %exitcond.not, label %19, label %.preheader101.split.preheader

19:                                               ; preds = %.split.us
  %20 = icmp eq i32 %.2, 512
  br i1 %20, label %.loopexit, label %21

21:                                               ; preds = %19
  %22 = trunc i32 %.2 to i16
  %23 = icmp ult i16 %22, 512
  br i1 %23, label %.lr.ph.preheader, label %._crit_edge

.lr.ph.preheader:                                 ; preds = %21
  %.mask = shl i32 %.2, 1
  %24 = and i32 %.mask, 1022
  %25 = zext nneg i32 %24 to i64
  %scevgep = getelementptr i8, ptr %2, i64 %25
  %26 = shl nuw nsw i16 %22, 1
  %narrow = sub nuw nsw i16 1024, %26
  %27 = zext nneg i16 %narrow to i64
  tail call void @llvm.memset.p0.i64(ptr align 2 %scevgep, i8 -1, i64 %27, i1 false)
  br label %._crit_edge

._crit_edge:                                      ; preds = %.lr.ph.preheader, %21
  %28 = shl i32 %.2, 16
  %29 = trunc nuw nsw i32 %0 to i16
  br label %.preheader.split.us.preheader

.preheader.split.us.preheader:                    ; preds = %.split129.us, %._crit_edge
  %indvars.iv145 = phi i32 [ 10, %._crit_edge ], [ %indvars.iv.next146, %.split129.us ]
  %indvars.iv = phi i32 [ 1, %._crit_edge ], [ %indvars.iv.next, %.split129.us ]
  %.1135 = phi i32 [ 32768, %._crit_edge ], [ %62, %.split129.us ]
  %.3134 = phi i32 [ %28, %._crit_edge ], [ %.5.us, %.split129.us ]
  %.082132 = phi i16 [ 256, %._crit_edge ], [ %.284.us, %.split129.us ]
  br label %.preheader.split.us

.preheader.split.us:                              ; preds = %.preheader.split.us.preheader, %37
  %.4127.us = phi i32 [ %.5.us, %37 ], [ %.3134, %.preheader.split.us.preheader ]
  %.183126.us = phi i16 [ %.284.us, %37 ], [ %.082132, %.preheader.split.us.preheader ]
  %.289125.us = phi i16 [ %38, %37 ], [ 0, %.preheader.split.us.preheader ]
  %30 = zext nneg i16 %.289125.us to i64
  %31 = getelementptr inbounds nuw i8, ptr %1, i64 %30
  %32 = load i8, ptr %31, align 1
  %33 = zext i8 %32 to i32
  %.not.us = icmp eq i32 %indvars.iv145, %33
  br i1 %.not.us, label %34, label %37

34:                                               ; preds = %.preheader.split.us
  %35 = icmp ugt i32 %.4127.us, 33554431
  br i1 %35, label %.loopexit, label %.lr.ph122.us

.lr.ph122.us:                                     ; preds = %34
  %36 = lshr i32 %.4127.us, 16
  br label %40

37:                                               ; preds = %._crit_edge123.us, %.preheader.split.us
  %.284.us = phi i16 [ %.183126.us, %.preheader.split.us ], [ %.486.us, %._crit_edge123.us ]
  %.5.us = phi i32 [ %.4127.us, %.preheader.split.us ], [ %61, %._crit_edge123.us ]
  %38 = add nuw nsw i16 %.289125.us, 1
  %39 = icmp samesign ult i16 %38, %29
  br i1 %39, label %.preheader.split.us, label %.split129.us

40:                                               ; preds = %.lr.ph122.us, %54
  %.178120.us = phi i32 [ 0, %.lr.ph122.us ], [ %58, %54 ]
  %.180119.us = phi i32 [ %36, %.lr.ph122.us ], [ %spec.select.us, %54 ]
  %.385118.us = phi i16 [ %.183126.us, %.lr.ph122.us ], [ %.486.us, %54 ]
  %41 = zext nneg i32 %.180119.us to i64
  %42 = getelementptr inbounds nuw i16, ptr %2, i64 %41
  %43 = load i16, ptr %42, align 2
  %44 = icmp eq i16 %43, -1
  br i1 %44, label %45, label %._crit_edge149

._crit_edge149:                                   ; preds = %40
  %.pre = zext i16 %43 to i32
  %.pre150 = shl nuw nsw i32 %.pre, 1
  br label %54

45:                                               ; preds = %40
  %46 = zext i16 %.385118.us to i32
  %47 = shl nuw nsw i32 %46, 1
  %48 = zext nneg i32 %47 to i64
  %49 = getelementptr inbounds nuw i16, ptr %2, i64 %48
  store i16 -1, ptr %49, align 2
  %50 = or disjoint i32 %47, 1
  %51 = zext nneg i32 %50 to i64
  %52 = getelementptr inbounds nuw i16, ptr %2, i64 %51
  store i16 -1, ptr %52, align 2
  %53 = add i16 %.385118.us, 1
  store i16 %.385118.us, ptr %42, align 2
  br label %54

54:                                               ; preds = %._crit_edge149, %45
  %.pre-phi151 = phi i32 [ %.pre150, %._crit_edge149 ], [ %47, %45 ]
  %.486.us = phi i16 [ %.385118.us, %._crit_edge149 ], [ %53, %45 ]
  %55 = sub nuw nsw i32 15, %.178120.us
  %56 = lshr i32 %.4127.us, %55
  %57 = and i32 %56, 1
  %spec.select.us = or disjoint i32 %.pre-phi151, %57
  %58 = add nuw nsw i32 %.178120.us, 1
  %exitcond144.not = icmp eq i32 %58, %indvars.iv
  br i1 %exitcond144.not, label %._crit_edge123.us, label %40

._crit_edge123.us:                                ; preds = %54
  %59 = zext nneg i32 %spec.select.us to i64
  %60 = getelementptr inbounds nuw i16, ptr %2, i64 %59
  store i16 %.289125.us, ptr %60, align 2
  %61 = add nuw nsw i32 %.4127.us, %.1135
  br label %37

.split129.us:                                     ; preds = %37
  %62 = lshr i32 %.1135, 1
  %indvars.iv.next146 = add nuw nsw i32 %indvars.iv145, 1
  %indvars.iv.next = add nuw nsw i32 %indvars.iv, 1
  %exitcond148.not = icmp eq i32 %indvars.iv.next146, 17
  br i1 %exitcond148.not, label %63, label %.preheader.split.us.preheader

63:                                               ; preds = %.split129.us
  %64 = icmp ne i32 %.5.us, 33554432
  %65 = zext i1 %64 to i32
  br label %.loopexit

.loopexit:                                        ; preds = %8, %34, %19, %63
  %.090 = phi i32 [ %65, %63 ], [ 0, %19 ], [ 1, %34 ], [ 1, %8 ]
  ret i32 %.090
}